target datalayout = "e-m:e-p270:32:32-p271:32:32-p272:64:64-i64:64-i128:128-f80:128-n8:16:32:64-S128"
target triple = "x86_64-pc-linux-gnu"

%struct.pmix_class_t = type { ptr, ptr, ptr, ptr, i32, i32, ptr, ptr, i64 }
%struct.pmix_object_t = type { %union.pthread_mutex_t, ptr, i32, %struct.pmix_tma }
%union.pthread_mutex_t = type { %struct.__pthread_mutex_s }
%struct.__pthread_mutex_s = type { i32, i32, i32, i32, i32, i16, i16, %struct.__pthread_internal_list }
%struct.__pthread_internal_list = type { ptr, ptr }
%struct.pmix_tma = type { ptr, ptr, ptr, ptr, ptr, ptr, ptr, ptr }
%struct.pmix_list_item_t = type { %struct.pmix_object_t, ptr, ptr, i32 }
%struct.pmix_list_t = type { %struct.pmix_object_t, %struct.pmix_list_item_t, i64 }
%struct.pmix_cli_item_t = type { %struct.pmix_list_item_t, ptr, ptr }
%struct.pmix_cli_result_t = type { %struct.pmix_object_t, %struct.pmix_list_t, ptr }

@pmix_info_pretty = dso_local global i8 1, align 1
@pmix_info_register_flags = dso_local global i32 1, align 4
@.str.29 = private unnamed_addr constant [15 x i8] c"help-pinfo.txt\00", align 1
@.str.30 = private unnamed_addr constant [14 x i8] c"lib-call-fail\00", align 1
@.str.31 = private unnamed_addr constant [14 x i8] c"mca_base_open\00", align 1
@.str.32 = private unnamed_addr constant [10 x i8] c"support.c\00", align 1
@pmix_info_cmd_line = external global ptr, align 8
@pshorts = internal global ptr @.str.156, align 8
@.str.33 = private unnamed_addr constant [19 x i8] c"help-pmix-info.txt\00", align 1
@stderr = external global ptr, align 8
@.str.34 = private unnamed_addr constant [29 x i8] c"%s: command line error (%s)\0A\00", align 1
@.str.35 = private unnamed_addr constant [13 x i8] c"pretty-print\00", align 1
@.str.36 = private unnamed_addr constant [9 x i8] c"parsable\00", align 1
@.str.37 = private unnamed_addr constant [10 x i8] c"parseable\00", align 1
@.str.38 = private unnamed_addr constant [14 x i8] c"selected-only\00", align 1
@.str.39 = private unnamed_addr constant [12 x i8] c"show-failed\00", align 1
@pmix_mca_base_component_track_load_errors = external global i8, align 1
@.str.155 = private unnamed_addr constant [21 x i8] c"pthread_mutex_lock()\00", align 1

; Function Attrs: inlinehint nounwind uwtable
define internal ptr @pmix_cmd_line_get_param(ptr noundef %0, ptr noundef %1) #4 {
  %3 = alloca ptr, align 8
  %4 = alloca ptr, align 8
  %5 = alloca ptr, align 8
  %6 = alloca ptr, align 8
  %7 = alloca i32, align 4
  store ptr %0, ptr %4, align 8, !tbaa !4
  store ptr %1, ptr %5, align 8, !tbaa !24
  call void @llvm.lifetime.start.p0(i64 8, ptr %6) #13
  %8 = load ptr, ptr %4, align 8, !tbaa !4
  %9 = getelementptr inbounds nuw %struct.pmix_cli_result_t, ptr %8, i32 0, i32 1
  %10 = getelementptr inbounds nuw %struct.pmix_list_t, ptr %9, i32 0, i32 1
  %11 = getelementptr inbounds nuw %struct.pmix_list_item_t, ptr %10, i32 0, i32 1
  %12 = load ptr, ptr %11, align 8, !tbaa !85
  store ptr %12, ptr %6, align 8, !tbaa !4
  br label %13

13:                                               ; preds = %29, %2
  %14 = load ptr, ptr %6, align 8, !tbaa !4
  %15 = load ptr, ptr %4, align 8, !tbaa !4
  %16 = getelementptr inbounds nuw %struct.pmix_cli_result_t, ptr %15, i32 0, i32 1
  %17 = getelementptr inbounds nuw %struct.pmix_list_t, ptr %16, i32 0, i32 1
  %18 = icmp ne ptr %14, %17
  br i1 %18, label %19, label %33

19:                                               ; preds = %13
  %20 = load ptr, ptr %6, align 8, !tbaa !4
  %21 = getelementptr inbounds nuw %struct.pmix_cli_item_t, ptr %20, i32 0, i32 1
  %22 = load ptr, ptr %21, align 8, !tbaa !87
  %23 = load ptr, ptr %5, align 8, !tbaa !24
  %24 = call i32 @strcmp(ptr noundef %22, ptr noundef %23) #16
  %25 = icmp eq i32 0, %24
  br i1 %25, label %26, label %28

26:                                               ; preds = %19
  %27 = load ptr, ptr %6, align 8, !tbaa !4
  store ptr %27, ptr %3, align 8
  store i32 1, ptr %7, align 4
  br label %34

28:                                               ; preds = %19
  br label %29

29:                                               ; preds = %28
  %30 = load ptr, ptr %6, align 8, !tbaa !4
  %31 = getelementptr inbounds nuw %struct.pmix_list_item_t, ptr %30, i32 0, i32 1
  %32 = load ptr, ptr %31, align 8, !tbaa !88
  store ptr %32, ptr %6, align 8, !tbaa !4
  br label %13, !llvm.loop !89

33:                                               ; preds = %13
  store ptr null, ptr %3, align 8
  store i32 1, ptr %7, align 4
  br label %34

34:                                               ; preds = %33, %26
  call void @llvm.lifetime.end.p0(i64 8, ptr %6) #13
  %35 = load ptr, ptr %3, align 8
  ret ptr %35
}

; Function Attrs: inlinehint nounwind uwtable
define internal zeroext i1 @pmix_cmd_line_is_taken(ptr noundef %0, ptr noundef %1) #4 {
  %3 = alloca i1, align 1
  %4 = alloca ptr, align 8
  %5 = alloca ptr, align 8
  store ptr %0, ptr %4, align 8, !tbaa !4
  store ptr %1, ptr %5, align 8, !tbaa !24
  %6 = load ptr, ptr %4, align 8, !tbaa !4
  %7 = load ptr, ptr %5, align 8, !tbaa !24
  %8 = call ptr @pmix_cmd_line_get_param(ptr noundef %6, ptr noundef %7)
  %9 = icmp eq ptr null, %8
  br i1 %9, label %10, label %11

10:                                               ; preds = %2
  store i1 false, ptr %3, align 1
  br label %12

11:                                               ; preds = %2
  store i1 true, ptr %3, align 1
  br label %12

12:                                               ; preds = %11, %10
  %13 = load i1, ptr %3, align 1
  ret i1 %13
}

; Function Attrs: inlinehint nounwind uwtable
define internal void @pmix_tma_free(ptr noundef %0, ptr noundef %1) #4 {
  %3 = alloca ptr, align 8
  %4 = alloca ptr, align 8
  store ptr %0, ptr %3, align 8, !tbaa !36
  store ptr %1, ptr %4, align 8, !tbaa !4
  %5 = load ptr, ptr %3, align 8, !tbaa !36
  %6 = icmp ne ptr null, %5
  br i1 %6, label %7, label %13

7:                                                ; preds = %2
  %8 = load ptr, ptr %3, align 8, !tbaa !36
  %9 = getelementptr inbounds nuw %struct.pmix_tma, ptr %8, i32 0, i32 5
  %10 = load ptr, ptr %9, align 8, !tbaa !38
  %11 = load ptr, ptr %3, align 8, !tbaa !36
  %12 = load ptr, ptr %4, align 8, !tbaa !4
  call void %10(ptr noundef %11, ptr noundef %12)
  br label %15

13:                                               ; preds = %2
  %14 = load ptr, ptr %4, align 8, !tbaa !4
  call void @free(ptr noundef %14) #13
  br label %15

15:                                               ; preds = %13, %7
  ret void
}

; Function Attrs: inlinehint nounwind uwtable
define internal void @pmix_obj_run_destructors(ptr noundef %0) #4 {
  %2 = alloca ptr, align 8
  %3 = alloca ptr, align 8
  store ptr %0, ptr %2, align 8, !tbaa !21
  call void @llvm.lifetime.start.p0(i64 8, ptr %3) #13
  %4 = load ptr, ptr %2, align 8, !tbaa !21
  %5 = getelementptr inbounds nuw %struct.pmix_object_t, ptr %4, i32 0, i32 1
  %6 = load ptr, ptr %5, align 8, !tbaa !30
  %7 = getelementptr inbounds nuw %struct.pmix_class_t, ptr %6, i32 0, i32 7
  %8 = load ptr, ptr %7, align 8, !tbaa !31
  store ptr %8, ptr %3, align 8, !tbaa !4
  br label %9

9:                                                ; preds = %13, %1
  %10 = load ptr, ptr %3, align 8, !tbaa !4
  %11 = load ptr, ptr %10, align 8, !tbaa !4
  %12 = icmp ne ptr null, %11
  br i1 %12, label %13, label %19

13:                                               ; preds = %9
  %14 = load ptr, ptr %3, align 8, !tbaa !4
  %15 = load ptr, ptr %14, align 8, !tbaa !4
  %16 = load ptr, ptr %2, align 8, !tbaa !21
  call void %15(ptr noundef %16)
  %17 = load ptr, ptr %3, align 8, !tbaa !4
  %18 = getelementptr inbounds nuw ptr, ptr %17, i32 1
  store ptr %18, ptr %3, align 8, !tbaa !4
  br label %9, !llvm.loop !34

19:                                               ; preds = %9
  call void @llvm.lifetime.end.p0(i64 8, ptr %3) #13
  ret void
}

; Function Attrs: alwaysinline nounwind uwtable
define internal i32 @pmix_obj_update(ptr noundef %0, i32 noundef %1) #3 {
  %3 = alloca ptr, align 8
  %4 = alloca i32, align 4
  %5 = alloca i32, align 4
  store ptr %0, ptr %3, align 8, !tbaa !21
  store i32 %1, ptr %4, align 4, !tbaa !18
  call void @llvm.lifetime.start.p0(i64 4, ptr %5) #13
  %6 = load ptr, ptr %3, align 8, !tbaa !21
  %7 = getelementptr inbounds nuw %struct.pmix_object_t, ptr %6, i32 0, i32 0
  %8 = call i32 @pthread_mutex_lock(ptr noundef %7) #13
  store i32 %8, ptr %5, align 4, !tbaa !18
  %9 = load i32, ptr %5, align 4, !tbaa !18
  %10 = icmp eq i32 %9, 35
  br i1 %10, label %11, label %14

11:                                               ; preds = %2
  %12 = load i32, ptr %5, align 4, !tbaa !18
  %13 = call ptr @__errno_location() #15
  store i32 %12, ptr %13, align 4, !tbaa !18
  call void @perror(ptr noundef @.str.155)
  call void @abort() #14
  unreachable

14:                                               ; preds = %2
  %15 = load i32, ptr %4, align 4, !tbaa !18
  %16 = load ptr, ptr %3, align 8, !tbaa !21
  %17 = getelementptr inbounds nuw %struct.pmix_object_t, ptr %16, i32 0, i32 2
  %18 = load i32, ptr %17, align 8, !tbaa !29
  %19 = add nsw i32 %18, %15
  store i32 %19, ptr %17, align 8, !tbaa !29
  store i32 %19, ptr %5, align 4, !tbaa !18
  %20 = load ptr, ptr %3, align 8, !tbaa !21
  %21 = getelementptr inbounds nuw %struct.pmix_object_t, ptr %20, i32 0, i32 0
  %22 = call i32 @pthread_mutex_unlock(ptr noundef %21) #13
  %23 = load i32, ptr %5, align 4, !tbaa !18
  call void @llvm.lifetime.end.p0(i64 4, ptr %5) #13
  ret i32 %23
}

; Function Attrs: nounwind uwtable
define dso_local i32 @pmix_info_init(i32 noundef %0, ptr noundef %1) #0 {
  %3 = alloca i32, align 4
  %4 = alloca ptr, align 8
  %5 = alloca i32, align 4
  %6 = alloca ptr, align 8
  store i32 %0, ptr %3, align 4, !tbaa !18
  store ptr %1, ptr %4, align 8, !tbaa !19
  call void @llvm.lifetime.start.p0(i64 4, ptr %5) #13
  %7 = call i32 @pmix_mca_base_open(ptr noundef null)
  %8 = icmp ne i32 0, %7
  br i1 %8, label %9, label %33

9:                                                ; preds = %2
  %10 = call i32 (ptr, ptr, i32, ...) @pmix_show_help(ptr noundef @.str.29, ptr noundef @.str.30, i32 noundef 1, ptr noundef @.str.31, ptr noundef @.str.32, i32 noundef 147)
  br label %11

11:                                               ; preds = %9
  call void @llvm.lifetime.start.p0(i64 8, ptr %6) #13
  %12 = load ptr, ptr @pmix_info_cmd_line, align 8, !tbaa !4
  store ptr %12, ptr %6, align 8, !tbaa !21
  %13 = load ptr, ptr %6, align 8, !tbaa !21
  %14 = call i32 @pmix_obj_update(ptr noundef %13, i32 noundef -1)
  %15 = icmp eq i32 0, %14
  br i1 %15, label %16, label %30

16:                                               ; preds = %11
  %17 = load ptr, ptr %6, align 8, !tbaa !21
  call void @pmix_obj_run_destructors(ptr noundef %17)
  %18 = load ptr, ptr %6, align 8, !tbaa !21
  %19 = getelementptr inbounds nuw %struct.pmix_object_t, ptr %18, i32 0, i32 3
  %20 = getelementptr inbounds nuw %struct.pmix_tma, ptr %19, i32 0, i32 5
  %21 = load ptr, ptr %20, align 8, !tbaa !23
  %22 = icmp ne ptr null, %21
  br i1 %22, label %23, label %27

23:                                               ; preds = %16
  %24 = load ptr, ptr %6, align 8, !tbaa !21
  %25 = getelementptr inbounds nuw %struct.pmix_object_t, ptr %24, i32 0, i32 3
  %26 = load ptr, ptr @pmix_info_cmd_line, align 8, !tbaa !4
  call void @pmix_tma_free(ptr noundef %25, ptr noundef %26)
  br label %29

27:                                               ; preds = %16
  %28 = load ptr, ptr @pmix_info_cmd_line, align 8, !tbaa !4
  call void @free(ptr noundef %28) #13
  br label %29

29:                                               ; preds = %27, %23
  store ptr null, ptr @pmix_info_cmd_line, align 8, !tbaa !4
  br label %30

30:                                               ; preds = %29, %11
  call void @llvm.lifetime.end.p0(i64 8, ptr %6) #13
  br label %31

31:                                               ; preds = %30
  br label %32

32:                                               ; preds = %31
  call void @exit(i32 noundef 1) #14
  unreachable

33:                                               ; preds = %2
  %34 = load ptr, ptr %4, align 8, !tbaa !19
  %35 = load ptr, ptr @pshorts, align 8, !tbaa !24
  %36 = load ptr, ptr @pmix_info_cmd_line, align 8, !tbaa !4
  %37 = call i32 @pmix_cmd_line_parse(ptr noundef %34, ptr noundef %35, ptr noundef @poptions, ptr noundef null, ptr noundef %36, ptr noundef @.str.33)
  store i32 %37, ptr %5, align 4, !tbaa !18
  %38 = load i32, ptr %5, align 4, !tbaa !18
  %39 = icmp ne i32 0, %38
  br i1 %39, label %40, label %60

40:                                               ; preds = %33
  %41 = load i32, ptr %5, align 4, !tbaa !18
  %42 = icmp ne i32 -2, %41
  br i1 %42, label %43, label %54

43:                                               ; preds = %40
  %44 = load i32, ptr %5, align 4, !tbaa !18
  %45 = icmp ne i32 -157, %44
  br i1 %45, label %46, label %54

46:                                               ; preds = %43
  %47 = load ptr, ptr @stderr, align 8, !tbaa !25
  %48 = load ptr, ptr %4, align 8, !tbaa !19
  %49 = getelementptr inbounds ptr, ptr %48, i64 0
  %50 = load ptr, ptr %49, align 8, !tbaa !24
  %51 = load i32, ptr %5, align 4, !tbaa !18
  %52 = call ptr @PMIx_Error_string(i32 noundef %51)
  %53 = call i32 (ptr, ptr, ...) @fprintf(ptr noundef %47, ptr noundef @.str.34, ptr noundef %50, ptr noundef %52) #13
  br label %54

54:                                               ; preds = %46, %43, %40
  %55 = load i32, ptr %5, align 4, !tbaa !18
  %56 = icmp eq i32 -157, %55
  br i1 %56, label %57, label %58

57:                                               ; preds = %54
  store i32 0, ptr %5, align 4, !tbaa !18
  br label %58

58:                                               ; preds = %57, %54
  %59 = load i32, ptr %5, align 4, !tbaa !18
  call void @exit(i32 noundef %59) #14
  unreachable

60:                                               ; preds = %33
  %61 = load ptr, ptr @pmix_info_cmd_line, align 8, !tbaa !4
  %62 = call zeroext i1 @pmix_cmd_line_is_taken(ptr noundef %61, ptr noundef @.str.35)
  br i1 %62, label %63, label %64

63:                                               ; preds = %60
  store i8 1, ptr @pmix_info_pretty, align 1, !tbaa !27
  br label %72

64:                                               ; preds = %60
  %65 = load ptr, ptr @pmix_info_cmd_line, align 8, !tbaa !4
  %66 = call zeroext i1 @pmix_cmd_line_is_taken(ptr noundef %65, ptr noundef @.str.36)
  br i1 %66, label %70, label %67

67:                                               ; preds = %64
  %68 = load ptr, ptr @pmix_info_cmd_line, align 8, !tbaa !4
  %69 = call zeroext i1 @pmix_cmd_line_is_taken(ptr noundef %68, ptr noundef @.str.37)
  br i1 %69, label %70, label %71

70:                                               ; preds = %67, %64
  store i8 0, ptr @pmix_info_pretty, align 1, !tbaa !27
  br label %71

71:                                               ; preds = %70, %67
  br label %72

72:                                               ; preds = %71, %63
  %73 = load ptr, ptr @pmix_info_cmd_line, align 8, !tbaa !4
  %74 = call zeroext i1 @pmix_cmd_line_is_taken(ptr noundef %73, ptr noundef @.str.38)
  br i1 %74, label %75, label %76

75:                                               ; preds = %72
  store i32 0, ptr @pmix_info_register_flags, align 4, !tbaa !18
  br label %76

76:                                               ; preds = %75, %72
  %77 = load ptr, ptr @pmix_info_cmd_line, align 8, !tbaa !4
  %78 = call zeroext i1 @pmix_cmd_line_is_taken(ptr noundef %77, ptr noundef @.str.39)
  br i1 %78, label %79, label %80

79:                                               ; preds = %76
  store i8 1, ptr @pmix_mca_base_component_track_load_errors, align 1, !tbaa !27
  br label %80

80:                                               ; preds = %79, %76
  call void @llvm.lifetime.end.p0(i64 4, ptr %5) #13
  ret i32 0
}