; Function Attrs: nounwind uwtable
define dso_local noundef i32 @pmix_info_init(i32 noundef %0, ptr noundef %1) local_unnamed_addr #2 {
  %3 = tail call i32 @pmix_mca_base_open(ptr noundef null) #17
  %.not = icmp eq i32 %3, 0
  br i1 %.not, label %34, label %4

4:                                                ; preds = %2
  %5 = tail call i32 (ptr, ptr, i32, ...) @pmix_show_help(ptr noundef nonnull @.str.29, ptr noundef nonnull @.str.30, i32 noundef 1, ptr noundef nonnull @.str.31, ptr noundef nonnull @.str.32, i32 noundef 147) #17
  %6 = load ptr, ptr @pmix_info_cmd_line, align 8, !tbaa !17
  %7 = tail call i32 @pthread_mutex_lock(ptr noundef %6) #17
  %8 = icmp eq i32 %7, 35
  br i1 %8, label %9, label %pmix_obj_update.exit

9:                                                ; preds = %4
  %10 = tail call ptr @__errno_location() #18
  store i32 35, ptr %10, align 4, !tbaa !18
  tail call void @perror(ptr noundef nonnull @.str.155) #19
  tail call void @abort() #20
  unreachable

pmix_obj_update.exit:                             ; preds = %4
  %11 = getelementptr inbounds nuw i8, ptr %6, i64 48
  %12 = load i32, ptr %11, align 8, !tbaa !19
  %13 = add nsw i32 %12, -1
  store i32 %13, ptr %11, align 8, !tbaa !19
  %14 = tail call i32 @pthread_mutex_unlock(ptr noundef %6) #17
  %15 = icmp eq i32 %13, 0
  br i1 %15, label %16, label %33

16:                                               ; preds = %pmix_obj_update.exit
  %17 = getelementptr inbounds nuw i8, ptr %6, i64 40
  %18 = load ptr, ptr %17, align 8, !tbaa !20
  %19 = getelementptr inbounds nuw i8, ptr %18, i64 48
  %20 = load ptr, ptr %19, align 8, !tbaa !21
  %21 = load ptr, ptr %20, align 8, !tbaa !17
  %.not6.i = icmp eq ptr %21, null
  br i1 %.not6.i, label %pmix_obj_run_destructors.exit, label %.lr.ph.i

.lr.ph.i:                                         ; preds = %16, %.lr.ph.i
  %22 = phi ptr [ %24, %.lr.ph.i ], [ %21, %16 ]
  %.07.i = phi ptr [ %23, %.lr.ph.i ], [ %20, %16 ]
  tail call void %22(ptr noundef %6) #17
  %23 = getelementptr inbounds nuw i8, ptr %.07.i, i64 8
  %24 = load ptr, ptr %23, align 8, !tbaa !17
  %.not.i = icmp eq ptr %24, null
  br i1 %.not.i, label %pmix_obj_run_destructors.exit, label %.lr.ph.i, !llvm.loop !24

pmix_obj_run_destructors.exit:                    ; preds = %.lr.ph.i, %16
  %25 = getelementptr inbounds nuw i8, ptr %6, i64 96
  %26 = load ptr, ptr %25, align 8, !tbaa !26
  %.not13 = icmp eq ptr %26, null
  br i1 %.not13, label %30, label %27

27:                                               ; preds = %pmix_obj_run_destructors.exit
  %28 = getelementptr inbounds nuw i8, ptr %6, i64 56
  %29 = load ptr, ptr @pmix_info_cmd_line, align 8, !tbaa !17
  tail call void %26(ptr noundef nonnull %28, ptr noundef %29) #17
  br label %32

30:                                               ; preds = %pmix_obj_run_destructors.exit
  %31 = load ptr, ptr @pmix_info_cmd_line, align 8, !tbaa !17
  tail call void @free(ptr noundef %31) #17
  br label %32

32:                                               ; preds = %30, %27
  store ptr null, ptr @pmix_info_cmd_line, align 8, !tbaa !17
  br label %33

33:                                               ; preds = %32, %pmix_obj_update.exit
  tail call void @exit(i32 noundef 1) #21
  unreachable

34:                                               ; preds = %2
  %35 = load ptr, ptr @pmix_info_cmd_line, align 8, !tbaa !17
  %36 = tail call i32 @pmix_cmd_line_parse(ptr noundef %1, ptr noundef nonnull @.str.156, ptr noundef nonnull @poptions, ptr noundef null, ptr noundef %35, ptr noundef nonnull @.str.33) #17
  switch i32 %36, label %37 [
    i32 0, label %44
    i32 -2, label %42
    i32 -157, label %42
  ]

37:                                               ; preds = %34
  %38 = load ptr, ptr @stderr, align 8, !tbaa !27
  %39 = load ptr, ptr %1, align 8, !tbaa !29
  %40 = tail call ptr @PMIx_Error_string(i32 noundef %36) #17
  %41 = tail call i32 (ptr, ptr, ...) @fprintf(ptr noundef %38, ptr noundef nonnull @.str.34, ptr noundef %39, ptr noundef %40) #22
  br label %42

42:                                               ; preds = %34, %34, %37
  %43 = icmp eq i32 %36, -157
  %spec.store.select = select i1 %43, i32 0, i32 %36
  tail call void @exit(i32 noundef %spec.store.select) #20
  unreachable

44:                                               ; preds = %34
  %45 = load ptr, ptr @pmix_info_cmd_line, align 8, !tbaa !17
  %46 = getelementptr inbounds nuw i8, ptr %45, i64 240
  %47 = getelementptr inbounds nuw i8, ptr %45, i64 360
  %.09.i.i = load ptr, ptr %47, align 8, !tbaa !30
  %.not10.i.i = icmp eq ptr %.09.i.i, %46
  br i1 %.not10.i.i, label %pmix_cmd_line_is_taken.exit54, label %.lr.ph.i.i

.lr.ph.i.i:                                       ; preds = %44, %52
  %.011.i.i = phi ptr [ %.0.i.i, %52 ], [ %.09.i.i, %44 ]
  %48 = getelementptr inbounds nuw i8, ptr %.011.i.i, i64 144
  %49 = load ptr, ptr %48, align 8, !tbaa !31
  %50 = tail call i32 @strcmp(ptr noundef nonnull dereferenceable(1) %49, ptr noundef nonnull readonly dereferenceable(13) @.str.35) #23
  %51 = icmp eq i32 %50, 0
  br i1 %51, label %pmix_cmd_line_is_taken.exit34.sink.split, label %52

52:                                               ; preds = %.lr.ph.i.i
  %53 = getelementptr inbounds nuw i8, ptr %.011.i.i, i64 120
  %.0.i.i = load ptr, ptr %53, align 8, !tbaa !30
  %.not.i.i = icmp eq ptr %.0.i.i, %46
  br i1 %.not.i.i, label %.lr.ph.i.i17, label %.lr.ph.i.i, !llvm.loop !34

.lr.ph.i.i17:                                     ; preds = %52, %58
  %.011.i.i18 = phi ptr [ %.0.i.i19, %58 ], [ %.09.i.i, %52 ]
  %54 = getelementptr inbounds nuw i8, ptr %.011.i.i18, i64 144
  %55 = load ptr, ptr %54, align 8, !tbaa !31
  %56 = tail call i32 @strcmp(ptr noundef nonnull dereferenceable(1) %55, ptr noundef nonnull readonly dereferenceable(9) @.str.36) #23
  %57 = icmp eq i32 %56, 0
  br i1 %57, label %pmix_cmd_line_is_taken.exit34.sink.split, label %58

58:                                               ; preds = %.lr.ph.i.i17
  %59 = getelementptr inbounds nuw i8, ptr %.011.i.i18, i64 120
  %.0.i.i19 = load ptr, ptr %59, align 8, !tbaa !30
  %.not.i.i20 = icmp eq ptr %.0.i.i19, %46
  br i1 %.not.i.i20, label %.lr.ph.i.i27, label %.lr.ph.i.i17, !llvm.loop !34

.lr.ph.i.i27:                                     ; preds = %58, %64
  %.011.i.i28 = phi ptr [ %.0.i.i29, %64 ], [ %.09.i.i, %58 ]
  %60 = getelementptr inbounds nuw i8, ptr %.011.i.i28, i64 144
  %61 = load ptr, ptr %60, align 8, !tbaa !31
  %62 = tail call i32 @strcmp(ptr noundef nonnull dereferenceable(1) %61, ptr noundef nonnull readonly dereferenceable(10) @.str.37) #23
  %63 = icmp eq i32 %62, 0
  br i1 %63, label %pmix_cmd_line_is_taken.exit34.sink.split, label %64

64:                                               ; preds = %.lr.ph.i.i27
  %65 = getelementptr inbounds nuw i8, ptr %.011.i.i28, i64 120
  %.0.i.i29 = load ptr, ptr %65, align 8, !tbaa !30
  %.not.i.i30 = icmp eq ptr %.0.i.i29, %46
  br i1 %.not.i.i30, label %.lr.ph.i.i37.preheader, label %.lr.ph.i.i27, !llvm.loop !34

pmix_cmd_line_is_taken.exit34.sink.split:         ; preds = %.lr.ph.i.i, %.lr.ph.i.i17, %.lr.ph.i.i27
  %.sink = phi i8 [ 0, %.lr.ph.i.i27 ], [ 0, %.lr.ph.i.i17 ], [ 1, %.lr.ph.i.i ]
  store i8 %.sink, ptr @pmix_info_pretty, align 1, !tbaa !35
  br label %.lr.ph.i.i37.preheader

.lr.ph.i.i37.preheader:                           ; preds = %64, %pmix_cmd_line_is_taken.exit34.sink.split
  br label %.lr.ph.i.i37

.lr.ph.i.i37:                                     ; preds = %.lr.ph.i.i37.preheader, %70
  %.011.i.i38 = phi ptr [ %.0.i.i39, %70 ], [ %.09.i.i, %.lr.ph.i.i37.preheader ]
  %66 = getelementptr inbounds nuw i8, ptr %.011.i.i38, i64 144
  %67 = load ptr, ptr %66, align 8, !tbaa !31
  %68 = tail call i32 @strcmp(ptr noundef nonnull dereferenceable(1) %67, ptr noundef nonnull readonly dereferenceable(14) @.str.38) #23
  %69 = icmp eq i32 %68, 0
  br i1 %69, label %72, label %70

70:                                               ; preds = %.lr.ph.i.i37
  %71 = getelementptr inbounds nuw i8, ptr %.011.i.i38, i64 120
  %.0.i.i39 = load ptr, ptr %71, align 8, !tbaa !30
  %.not.i.i40 = icmp eq ptr %.0.i.i39, %46
  br i1 %.not.i.i40, label %.lr.ph.i.i47.preheader, label %.lr.ph.i.i37, !llvm.loop !34

72:                                               ; preds = %.lr.ph.i.i37
  store i32 0, ptr @pmix_info_register_flags, align 4, !tbaa !18
  br label %.lr.ph.i.i47.preheader

.lr.ph.i.i47.preheader:                           ; preds = %70, %72
  br label %.lr.ph.i.i47

.lr.ph.i.i47:                                     ; preds = %.lr.ph.i.i47.preheader, %77
  %.011.i.i48 = phi ptr [ %.0.i.i49, %77 ], [ %.09.i.i, %.lr.ph.i.i47.preheader ]
  %73 = getelementptr inbounds nuw i8, ptr %.011.i.i48, i64 144
  %74 = load ptr, ptr %73, align 8, !tbaa !31
  %75 = tail call i32 @strcmp(ptr noundef nonnull dereferenceable(1) %74, ptr noundef nonnull readonly dereferenceable(12) @.str.39) #23
  %76 = icmp eq i32 %75, 0
  br i1 %76, label %79, label %77

77:                                               ; preds = %.lr.ph.i.i47
  %78 = getelementptr inbounds nuw i8, ptr %.011.i.i48, i64 120
  %.0.i.i49 = load ptr, ptr %78, align 8, !tbaa !30
  %.not.i.i50 = icmp eq ptr %.0.i.i49, %46
  br i1 %.not.i.i50, label %pmix_cmd_line_is_taken.exit54, label %.lr.ph.i.i47, !llvm.loop !34

79:                                               ; preds = %.lr.ph.i.i47
  store i8 1, ptr @pmix_mca_base_component_track_load_errors, align 1, !tbaa !35
  br label %pmix_cmd_line_is_taken.exit54

pmix_cmd_line_is_taken.exit54:                    ; preds = %77, %44, %79
  ret i32 0
}